#include <math.h>
#include <stdio.h>
#include <stdlib.h>
#include <string.h>

int main(){
	int i,j,n,m,a[1009],b;
	scanf("%d%d",&n,&m);
	for(i=0;i<n;i++)
	scanf("%d",&a[i]);
	int isbreak=0;
	for(i=0;i<n;i++){
		for(j=0;j<n;j++){
			if(a[i]!=a[j])
			b=a[i]+a[j];
			if(b==m){
				printf("yes");
				isbreak=1;
				break;
			}
		}
		if(isbreak==1)
		break;
	}
	if(isbreak==0)
	printf("no");
	return 0;
}